; Function Attrs: nounwind uwtable
define hidden void @Curl_conncontrol(ptr noundef %0, i32 noundef %1) local_unnamed_addr #0 {
  %3 = tail call zeroext i1 @Curl_conn_is_multiplex(ptr noundef %0, i32 noundef 0) #10
  %4 = icmp eq i32 %1, 1
  %5 = icmp eq i32 %1, 2
  %6 = xor i1 %3, true
  %7 = select i1 %5, i1 %6, i1 false
  %narrow = select i1 %4, i1 true, i1 %7
  %8 = select i1 %5, i1 %3, i1 false
  br i1 %8, label %18, label %9

9:                                                ; preds = %2
  %10 = getelementptr inbounds nuw i8, ptr %0, i64 952
  %11 = load i64, ptr %10, align 8
  %12 = and i64 %11, 32
  %13 = icmp eq i64 %12, 0
  %.not = xor i1 %narrow, %13
  br i1 %.not, label %18, label %14

14:                                               ; preds = %9
  %15 = select i1 %narrow, i64 32, i64 0
  %16 = and i64 %11, -33
  %17 = or disjoint i64 %16, %15
  store i64 %17, ptr %10, align 8
  br label %18

18:                                               ; preds = %2, %9, %14
  ret void
}